; Function Attrs: mustprogress nofree norecurse nosync nounwind willreturn memory(argmem: read) uwtable
define noundef zeroext i1 @_ZNK10open_spiel14dots_and_boxes17DotsAndBoxesState10IsTerminalEv(ptr nocapture noundef nonnull readonly align 8 dereferenceable(169) %0) unnamed_addr #7 align 2 {
  %2 = getelementptr inbounds nuw i8, ptr %0, i64 140
  %3 = load i32, ptr %2, align 4
  %.not = icmp eq i32 %3, -3
  br i1 %.not, label %4, label %17

4:                                                ; preds = %1
  %5 = getelementptr inbounds nuw i8, ptr %0, i64 144
  %6 = load i32, ptr %5, align 8
  %7 = getelementptr inbounds nuw i8, ptr %0, i64 148
  %8 = load i32, ptr %7, align 4
  %9 = add nsw i32 %8, 1
  %10 = getelementptr inbounds nuw i8, ptr %0, i64 152
  %11 = load i32, ptr %10, align 8
  %12 = mul nsw i32 %9, %11
  %13 = add nsw i32 %11, 1
  %14 = mul nsw i32 %13, %8
  %15 = add nsw i32 %14, %12
  %16 = icmp eq i32 %6, %15
  br label %17

17:                                               ; preds = %4, %1
  %18 = phi i1 [ true, %1 ], [ %16, %4 ]
  ret i1 %18
}